target datalayout = "e-m:e-p270:32:32-p271:32:32-p272:64:64-i64:64-i128:128-f80:128-n8:16:32:64-S128"
target triple = "x86_64-pc-linux-gnu"

%struct.lex_context = type { i16, [2 x i8] }
%struct.parser_params = type { ptr, ptr, %struct.anon.12, i64, i64, i32, i32, i32, i32, i32, ptr, ptr, ptr, ptr, i32, i32, ptr, i64, ptr, ptr, ptr, ptr, i64, i64, %struct.anon.13, ptr, i32, ptr, i32, i64, %struct.lex_context, ptr, ptr, ptr, i16, i64, i64, i64, i64, i64, i64 }
%struct.anon.12 = type { ptr, ptr, ptr, %struct.parser_string_buffer, ptr, ptr, ptr, ptr, ptr, ptr, i32, i32, i32, i32 }
%struct.parser_string_buffer = type { ptr, ptr }
%struct.anon.13 = type { ptr, i32, i32, i32, i32 }
%struct.local_vars = type { ptr, ptr, ptr, ptr, %struct.anon.16, ptr }
%struct.anon.16 = type { ptr, ptr, ptr }
%struct.vtable = type { ptr, i32, i32, ptr }

@.str.671 = private unnamed_addr constant [15 x i8] c"p->lvtbl->args\00", align 1
@.str.678 = private unnamed_addr constant [41 x i8] c"vtable_add: vtable is not allocated (%p)\00", align 1
@.str.739 = private unnamed_addr constant [39 x i8] c"_%d is reserved for numbered parameter\00", align 1

; Function Attrs: inlinehint nounwind sspstrong uwtable
define internal i32 @id_type(i64 noundef %0) #6 {
  %2 = alloca i32, align 4
  %3 = alloca i64, align 8
  store i64 %0, ptr %3, align 8, !tbaa !16
  %4 = load i64, ptr %3, align 8, !tbaa !16
  %5 = icmp ugt i64 %4, 170
  br i1 %5, label %6, label %10

6:                                                ; preds = %1
  %7 = load i64, ptr %3, align 8, !tbaa !16
  %8 = and i64 %7, 14
  %9 = trunc i64 %8 to i32
  store i32 %9, ptr %2, align 4
  br label %11

10:                                               ; preds = %1
  store i32 -1, ptr %2, align 4
  br label %11

11:                                               ; preds = %10, %6
  %12 = load i32, ptr %2, align 4
  ret i32 %12
}

; Function Attrs: nounwind sspstrong uwtable
define internal i32 @numparam_id_p(ptr noundef %0, i64 noundef %1) #0 {
  %3 = alloca i32, align 4
  %4 = alloca ptr, align 8
  %5 = alloca i64, align 8
  %6 = alloca i32, align 4
  store ptr %0, ptr %4, align 8, !tbaa !6
  store i64 %1, ptr %5, align 8, !tbaa !16
  %7 = load i64, ptr %5, align 8, !tbaa !16
  %8 = call i32 @id_type(i64 noundef %7)
  %9 = icmp eq i32 %8, 0
  br i1 %9, label %10, label %13

10:                                               ; preds = %2
  %11 = load i64, ptr %5, align 8, !tbaa !16
  %12 = icmp ult i64 %11, 3728
  br i1 %12, label %13, label %14

13:                                               ; preds = %10, %2
  store i32 0, ptr %3, align 4
  br label %27

14:                                               ; preds = %10
  call void @llvm.lifetime.start.p0(i64 4, ptr %6) #25
  %15 = load i64, ptr %5, align 8, !tbaa !16
  %16 = lshr i64 %15, 4
  %17 = sub i64 %16, 232
  %18 = trunc i64 %17 to i32
  store i32 %18, ptr %6, align 4, !tbaa !14
  %19 = load i32, ptr %6, align 4, !tbaa !14
  %20 = icmp ugt i32 %19, 0
  br i1 %20, label %21, label %24

21:                                               ; preds = %14
  %22 = load i32, ptr %6, align 4, !tbaa !14
  %23 = icmp ule i32 %22, 9
  br label %24

24:                                               ; preds = %21, %14
  %25 = phi i1 [ false, %14 ], [ %23, %21 ]
  %26 = zext i1 %25 to i32
  store i32 %26, ptr %3, align 4
  call void @llvm.lifetime.end.p0(i64 4, ptr %6) #25
  br label %27

27:                                               ; preds = %24, %13
  %28 = load i32, ptr %3, align 4
  ret i32 %28
}

; Function Attrs: nounwind sspstrong uwtable
define internal void @vtable_add_gen(ptr noundef %0, i32 noundef %1, ptr noundef %2, ptr noundef %3, i64 noundef %4) #0 {
  %6 = alloca ptr, align 8
  %7 = alloca i32, align 4
  %8 = alloca ptr, align 8
  %9 = alloca ptr, align 8
  %10 = alloca i64, align 8
  store ptr %0, ptr %6, align 8, !tbaa !6
  store i32 %1, ptr %7, align 4, !tbaa !14
  store ptr %2, ptr %8, align 8, !tbaa !24
  store ptr %3, ptr %9, align 8, !tbaa !468
  store i64 %4, ptr %10, align 8, !tbaa !16
  %11 = load ptr, ptr %9, align 8, !tbaa !468
  %12 = icmp eq ptr %11, inttoptr (i64 1 to ptr)
  br i1 %12, label %16, label %13

13:                                               ; preds = %5
  %14 = load ptr, ptr %9, align 8, !tbaa !468
  %15 = icmp eq ptr %14, null
  br i1 %15, label %16, label %19

16:                                               ; preds = %13, %5
  %17 = load ptr, ptr %6, align 8, !tbaa !6
  %18 = load ptr, ptr %9, align 8, !tbaa !468
  call void (ptr, ptr, ...) @rb_parser_fatal(ptr noundef %17, ptr noundef @.str.678, ptr noundef %18)
  br label %55

19:                                               ; preds = %13
  %20 = load ptr, ptr %9, align 8, !tbaa !468
  %21 = getelementptr inbounds nuw %struct.vtable, ptr %20, i32 0, i32 1
  %22 = load i32, ptr %21, align 8, !tbaa !543
  %23 = load ptr, ptr %9, align 8, !tbaa !468
  %24 = getelementptr inbounds nuw %struct.vtable, ptr %23, i32 0, i32 2
  %25 = load i32, ptr %24, align 4, !tbaa !662
  %26 = icmp eq i32 %22, %25
  br i1 %26, label %27, label %44

27:                                               ; preds = %19
  %28 = load ptr, ptr %9, align 8, !tbaa !468
  %29 = getelementptr inbounds nuw %struct.vtable, ptr %28, i32 0, i32 2
  %30 = load i32, ptr %29, align 4, !tbaa !662
  %31 = mul nsw i32 %30, 2
  %32 = load ptr, ptr %9, align 8, !tbaa !468
  %33 = getelementptr inbounds nuw %struct.vtable, ptr %32, i32 0, i32 2
  store i32 %31, ptr %33, align 4, !tbaa !662
  %34 = load ptr, ptr %9, align 8, !tbaa !468
  %35 = getelementptr inbounds nuw %struct.vtable, ptr %34, i32 0, i32 0
  %36 = load ptr, ptr %35, align 8, !tbaa !542
  %37 = load ptr, ptr %9, align 8, !tbaa !468
  %38 = getelementptr inbounds nuw %struct.vtable, ptr %37, i32 0, i32 2
  %39 = load i32, ptr %38, align 4, !tbaa !662
  %40 = sext i32 %39 to i64
  %41 = call nonnull ptr @ruby_xrealloc2(ptr noundef %36, i64 noundef %40, i64 noundef 8) #35
  %42 = load ptr, ptr %9, align 8, !tbaa !468
  %43 = getelementptr inbounds nuw %struct.vtable, ptr %42, i32 0, i32 0
  store ptr %41, ptr %43, align 8, !tbaa !542
  br label %44

44:                                               ; preds = %27, %19
  %45 = load i64, ptr %10, align 8, !tbaa !16
  %46 = load ptr, ptr %9, align 8, !tbaa !468
  %47 = getelementptr inbounds nuw %struct.vtable, ptr %46, i32 0, i32 0
  %48 = load ptr, ptr %47, align 8, !tbaa !542
  %49 = load ptr, ptr %9, align 8, !tbaa !468
  %50 = getelementptr inbounds nuw %struct.vtable, ptr %49, i32 0, i32 1
  %51 = load i32, ptr %50, align 8, !tbaa !543
  %52 = add nsw i32 %51, 1
  store i32 %52, ptr %50, align 8, !tbaa !543
  %53 = sext i32 %51 to i64
  %54 = getelementptr inbounds i64, ptr %48, i64 %53
  store i64 %45, ptr %54, align 8, !tbaa !16
  br label %55

55:                                               ; preds = %44, %16
  ret void
}

; Function Attrs: nounwind sspstrong uwtable
define internal void @numparam_name(ptr noundef %0, i64 noundef %1) #0 {
  %3 = alloca ptr, align 8
  %4 = alloca i64, align 8
  store ptr %0, ptr %3, align 8, !tbaa !6
  store i64 %1, ptr %4, align 8, !tbaa !16
  %5 = load ptr, ptr %3, align 8, !tbaa !6
  %6 = load i64, ptr %4, align 8, !tbaa !16
  %7 = call i32 @numparam_id_p(ptr noundef %5, i64 noundef %6)
  %8 = icmp ne i32 %7, 0
  br i1 %8, label %10, label %9

9:                                                ; preds = %2
  br label %16

10:                                               ; preds = %2
  %11 = load ptr, ptr %3, align 8, !tbaa !6
  %12 = load i64, ptr %4, align 8, !tbaa !16
  %13 = lshr i64 %12, 4
  %14 = sub i64 %13, 232
  %15 = trunc i64 %14 to i32
  call void (ptr, ptr, ...) @ripper_compile_error(ptr noundef %11, ptr noundef @.str.739, i32 noundef %15)
  br label %16

16:                                               ; preds = %10, %9
  ret void
}

; Function Attrs: nounwind sspstrong uwtable
define internal void @arg_var(ptr noundef %0, i64 noundef %1) #0 {
  %3 = alloca ptr, align 8
  %4 = alloca i64, align 8
  store ptr %0, ptr %3, align 8, !tbaa !6
  store i64 %1, ptr %4, align 8, !tbaa !16
  %5 = load ptr, ptr %3, align 8, !tbaa !6
  %6 = load i64, ptr %4, align 8, !tbaa !16
  call void @numparam_name(ptr noundef %5, i64 noundef %6)
  %7 = load ptr, ptr %3, align 8, !tbaa !6
  %8 = load ptr, ptr %3, align 8, !tbaa !6
  %9 = getelementptr inbounds nuw %struct.parser_params, ptr %8, i32 0, i32 11
  %10 = load ptr, ptr %9, align 8, !tbaa !297
  %11 = getelementptr inbounds nuw %struct.local_vars, ptr %10, i32 0, i32 0
  %12 = load ptr, ptr %11, align 8, !tbaa !302
  %13 = load i64, ptr %4, align 8, !tbaa !16
  call void @vtable_add_gen(ptr noundef %7, i32 noundef 14956, ptr noundef @.str.671, ptr noundef %12, i64 noundef %13)
  ret void
}

; Function Attrs: nounwind sspstrong uwtable
define internal void @add_forwarding_args(ptr noundef %0) #0 {
  %2 = alloca ptr, align 8
  store ptr %0, ptr %2, align 8, !tbaa !6
  %3 = load ptr, ptr %2, align 8, !tbaa !6
  call void @arg_var(ptr noundef %3, i64 noundef 42)
  %4 = load ptr, ptr %2, align 8, !tbaa !6
  call void @arg_var(ptr noundef %4, i64 noundef 134)
  %5 = load ptr, ptr %2, align 8, !tbaa !6
  call void @arg_var(ptr noundef %5, i64 noundef 38)
  %6 = load ptr, ptr %2, align 8, !tbaa !6
  call void @arg_var(ptr noundef %6, i64 noundef 129)
  ret void
}