; Function Attrs: nounwind sspstrong uwtable
define internal fastcc void @add_forwarding_args(ptr noundef %0) unnamed_addr #0 {
  %2 = getelementptr inbounds nuw i8, ptr %0, i64 168
  %3 = load ptr, ptr %2, align 8, !tbaa !89
  %4 = load ptr, ptr %3, align 8, !tbaa !182
  %switch.i.i = icmp ult ptr %4, inttoptr (i64 2 to ptr)
  br i1 %switch.i.i, label %5, label %6

5:                                                ; preds = %1
  tail call void (ptr, ptr, ...) @rb_parser_fatal(ptr noundef nonnull %0, ptr noundef nonnull @.str.678, ptr noundef %4) #31
  br label %arg_var.exit

6:                                                ; preds = %1
  %7 = getelementptr inbounds nuw i8, ptr %4, i64 8
  %8 = load i32, ptr %7, align 8, !tbaa !179
  %9 = getelementptr inbounds nuw i8, ptr %4, i64 12
  %10 = load i32, ptr %9, align 4, !tbaa !180
  %11 = icmp eq i32 %8, %10
  %.pre.i.i = load ptr, ptr %4, align 8, !tbaa !181
  br i1 %11, label %12, label %16

12:                                               ; preds = %6
  %13 = shl nsw i32 %8, 1
  store i32 %13, ptr %9, align 4, !tbaa !180
  %14 = sext i32 %13 to i64
  %15 = tail call nonnull ptr @ruby_xrealloc2(ptr noundef %.pre.i.i, i64 noundef %14, i64 noundef 8) #38
  store ptr %15, ptr %4, align 8, !tbaa !181
  %.pre1.i.i = load i32, ptr %7, align 8, !tbaa !179
  br label %16

16:                                               ; preds = %12, %6
  %17 = phi i32 [ %.pre1.i.i, %12 ], [ %8, %6 ]
  %18 = phi ptr [ %15, %12 ], [ %.pre.i.i, %6 ]
  %19 = add nsw i32 %17, 1
  store i32 %19, ptr %7, align 8, !tbaa !179
  %20 = sext i32 %17 to i64
  %21 = getelementptr inbounds i64, ptr %18, i64 %20
  store i64 42, ptr %21, align 8, !tbaa !9
  br label %arg_var.exit

arg_var.exit:                                     ; preds = %5, %16
  %22 = load ptr, ptr %2, align 8, !tbaa !89
  %23 = load ptr, ptr %22, align 8, !tbaa !182
  %switch.i.i4 = icmp ult ptr %23, inttoptr (i64 2 to ptr)
  br i1 %switch.i.i4, label %24, label %25

24:                                               ; preds = %arg_var.exit
  tail call void (ptr, ptr, ...) @rb_parser_fatal(ptr noundef nonnull %0, ptr noundef nonnull @.str.678, ptr noundef %23) #31
  br label %arg_var.exit7

25:                                               ; preds = %arg_var.exit
  %26 = getelementptr inbounds nuw i8, ptr %23, i64 8
  %27 = load i32, ptr %26, align 8, !tbaa !179
  %28 = getelementptr inbounds nuw i8, ptr %23, i64 12
  %29 = load i32, ptr %28, align 4, !tbaa !180
  %30 = icmp eq i32 %27, %29
  %.pre.i.i5 = load ptr, ptr %23, align 8, !tbaa !181
  br i1 %30, label %31, label %35

31:                                               ; preds = %25
  %32 = shl nsw i32 %27, 1
  store i32 %32, ptr %28, align 4, !tbaa !180
  %33 = sext i32 %32 to i64
  %34 = tail call nonnull ptr @ruby_xrealloc2(ptr noundef %.pre.i.i5, i64 noundef %33, i64 noundef 8) #38
  store ptr %34, ptr %23, align 8, !tbaa !181
  %.pre1.i.i6 = load i32, ptr %26, align 8, !tbaa !179
  br label %35

35:                                               ; preds = %31, %25
  %36 = phi i32 [ %.pre1.i.i6, %31 ], [ %27, %25 ]
  %37 = phi ptr [ %34, %31 ], [ %.pre.i.i5, %25 ]
  %38 = add nsw i32 %36, 1
  store i32 %38, ptr %26, align 8, !tbaa !179
  %39 = sext i32 %36 to i64
  %40 = getelementptr inbounds i64, ptr %37, i64 %39
  store i64 134, ptr %40, align 8, !tbaa !9
  br label %arg_var.exit7

arg_var.exit7:                                    ; preds = %24, %35
  %41 = load ptr, ptr %2, align 8, !tbaa !89
  %42 = load ptr, ptr %41, align 8, !tbaa !182
  %switch.i.i8 = icmp ult ptr %42, inttoptr (i64 2 to ptr)
  br i1 %switch.i.i8, label %43, label %44

43:                                               ; preds = %arg_var.exit7
  tail call void (ptr, ptr, ...) @rb_parser_fatal(ptr noundef nonnull %0, ptr noundef nonnull @.str.678, ptr noundef %42) #31
  br label %arg_var.exit11

44:                                               ; preds = %arg_var.exit7
  %45 = getelementptr inbounds nuw i8, ptr %42, i64 8
  %46 = load i32, ptr %45, align 8, !tbaa !179
  %47 = getelementptr inbounds nuw i8, ptr %42, i64 12
  %48 = load i32, ptr %47, align 4, !tbaa !180
  %49 = icmp eq i32 %46, %48
  %.pre.i.i9 = load ptr, ptr %42, align 8, !tbaa !181
  br i1 %49, label %50, label %54

50:                                               ; preds = %44
  %51 = shl nsw i32 %46, 1
  store i32 %51, ptr %47, align 4, !tbaa !180
  %52 = sext i32 %51 to i64
  %53 = tail call nonnull ptr @ruby_xrealloc2(ptr noundef %.pre.i.i9, i64 noundef %52, i64 noundef 8) #38
  store ptr %53, ptr %42, align 8, !tbaa !181
  %.pre1.i.i10 = load i32, ptr %45, align 8, !tbaa !179
  br label %54

54:                                               ; preds = %50, %44
  %55 = phi i32 [ %.pre1.i.i10, %50 ], [ %46, %44 ]
  %56 = phi ptr [ %53, %50 ], [ %.pre.i.i9, %44 ]
  %57 = add nsw i32 %55, 1
  store i32 %57, ptr %45, align 8, !tbaa !179
  %58 = sext i32 %55 to i64
  %59 = getelementptr inbounds i64, ptr %56, i64 %58
  store i64 38, ptr %59, align 8, !tbaa !9
  br label %arg_var.exit11

arg_var.exit11:                                   ; preds = %43, %54
  %60 = load ptr, ptr %2, align 8, !tbaa !89
  %61 = load ptr, ptr %60, align 8, !tbaa !182
  %switch.i.i12 = icmp ult ptr %61, inttoptr (i64 2 to ptr)
  br i1 %switch.i.i12, label %62, label %63

62:                                               ; preds = %arg_var.exit11
  tail call void (ptr, ptr, ...) @rb_parser_fatal(ptr noundef nonnull %0, ptr noundef nonnull @.str.678, ptr noundef %61) #31
  br label %arg_var.exit15

63:                                               ; preds = %arg_var.exit11
  %64 = getelementptr inbounds nuw i8, ptr %61, i64 8
  %65 = load i32, ptr %64, align 8, !tbaa !179
  %66 = getelementptr inbounds nuw i8, ptr %61, i64 12
  %67 = load i32, ptr %66, align 4, !tbaa !180
  %68 = icmp eq i32 %65, %67
  %.pre.i.i13 = load ptr, ptr %61, align 8, !tbaa !181
  br i1 %68, label %69, label %73

69:                                               ; preds = %63
  %70 = shl nsw i32 %65, 1
  store i32 %70, ptr %66, align 4, !tbaa !180
  %71 = sext i32 %70 to i64
  %72 = tail call nonnull ptr @ruby_xrealloc2(ptr noundef %.pre.i.i13, i64 noundef %71, i64 noundef 8) #38
  store ptr %72, ptr %61, align 8, !tbaa !181
  %.pre1.i.i14 = load i32, ptr %64, align 8, !tbaa !179
  br label %73

73:                                               ; preds = %69, %63
  %74 = phi i32 [ %.pre1.i.i14, %69 ], [ %65, %63 ]
  %75 = phi ptr [ %72, %69 ], [ %.pre.i.i13, %63 ]
  %76 = add nsw i32 %74, 1
  store i32 %76, ptr %64, align 8, !tbaa !179
  %77 = sext i32 %74 to i64
  %78 = getelementptr inbounds i64, ptr %75, i64 %77
  store i64 129, ptr %78, align 8, !tbaa !9
  br label %arg_var.exit15

arg_var.exit15:                                   ; preds = %62, %73
  ret void
}